target datalayout = "e-m:e-p270:32:32-p271:32:32-p272:64:64-i64:64-i128:128-f80:128-n8:16:32:64-S128"
target triple = "x86_64-pc-linux-gnu"

%struct.dlist_node = type { ptr, ptr }
%struct.ResourceOwnerDesc = type { ptr, i32, i32, ptr, ptr }
%struct.ForEachState = type { ptr, i32 }
%struct.CachedPlanSource = type { i32, ptr, ptr, i32, ptr, i32, ptr, ptr, i32, i8, ptr, ptr, ptr, ptr, ptr, ptr, ptr, i32, i8, i8, ptr, i8, i8, i8, i8, i32, %struct.dlist_node, double, double, i64, i64 }
%struct.CachedPlan = type { i32, ptr, i8, i8, i8, i32, i8, i32, i32, i32, ptr }
%struct.List = type { i32, i32, i32, ptr, [0 x %union.ListCell] }
%union.ListCell = type { ptr }
%struct.PlannedStmt = type { i32, i32, i64, i8, i8, i8, i8, i8, i8, i32, ptr, ptr, ptr, ptr, ptr, ptr, ptr, ptr, ptr, ptr, ptr, ptr, ptr, ptr, i32, i32 }
%struct.Query = type { i32, i32, i32, i64, i8, ptr, i32, i8, i8, i8, i8, i8, i8, i8, i8, i8, i8, i8, ptr, ptr, ptr, ptr, ptr, i32, ptr, ptr, i32, ptr, ptr, ptr, ptr, ptr, i8, ptr, ptr, ptr, ptr, ptr, ptr, ptr, i32, ptr, ptr, ptr, ptr, i32, i32 }
%struct.RangeTblEntry = type { i32, ptr, ptr, i32, i32, i8, i8, i32, i32, ptr, ptr, i8, i32, i32, ptr, ptr, ptr, ptr, ptr, i8, ptr, ptr, ptr, i32, i8, ptr, ptr, ptr, ptr, double, ptr, i8, i8, ptr }

@planref_resowner_desc = internal constant %struct.ResourceOwnerDesc { ptr @.str.11, i32 3, i32 300, ptr @ResOwnerReleaseCachedPlan, ptr null }, align 8

; Function Attrs: inlinehint nounwind uwtable
define internal i64 @PointerGetDatum(ptr noundef %0) #3 {
  %2 = alloca ptr, align 8
  store ptr %0, ptr %2, align 8
  %3 = load ptr, ptr %2, align 8
  %4 = ptrtoint ptr %3 to i64
  ret i64 %4
}

; Function Attrs: inlinehint nounwind uwtable
define internal void @ResourceOwnerRememberPlanCacheRef(ptr noundef %0, ptr noundef %1) #3 {
  %3 = alloca ptr, align 8
  %4 = alloca ptr, align 8
  store ptr %0, ptr %3, align 8
  store ptr %1, ptr %4, align 8
  %5 = load ptr, ptr %3, align 8
  %6 = load ptr, ptr %4, align 8
  %7 = call i64 @PointerGetDatum(ptr noundef %6)
  call void @ResourceOwnerRemember(ptr noundef %5, i64 noundef %7, ptr noundef @planref_resowner_desc)
  ret void
}

; Function Attrs: nounwind uwtable
define dso_local zeroext i1 @CachedPlanAllowsSimpleValidityCheck(ptr noundef %0, ptr noundef %1, ptr noundef %2) #0 {
  %4 = alloca i1, align 1
  %5 = alloca ptr, align 8
  %6 = alloca ptr, align 8
  %7 = alloca ptr, align 8
  %8 = alloca ptr, align 8
  %9 = alloca i32, align 4
  %10 = alloca %struct.ForEachState, align 8
  %11 = alloca ptr, align 8
  %12 = alloca %struct.ForEachState, align 8
  %13 = alloca ptr, align 8
  %14 = alloca ptr, align 8
  %15 = alloca %struct.ForEachState, align 8
  %16 = alloca ptr, align 8
  store ptr %0, ptr %5, align 8
  store ptr %1, ptr %6, align 8
  store ptr %2, ptr %7, align 8
  call void @llvm.lifetime.start.p0(i64 8, ptr %8) #8
  %17 = load ptr, ptr %5, align 8
  %18 = getelementptr inbounds nuw %struct.CachedPlanSource, ptr %17, i32 0, i32 21
  %19 = load i8, ptr %18, align 8, !range !4, !noundef !5
  %20 = trunc i8 %19 to i1
  br i1 %20, label %21, label %22

21:                                               ; preds = %3
  store i1 false, ptr %4, align 1
  store i32 1, ptr %9, align 4
  br label %221

22:                                               ; preds = %3
  %23 = load ptr, ptr %5, align 8
  %24 = getelementptr inbounds nuw %struct.CachedPlanSource, ptr %23, i32 0, i32 19
  %25 = load i8, ptr %24, align 1, !range !4, !noundef !5
  %26 = trunc i8 %25 to i1
  br i1 %26, label %27, label %28

27:                                               ; preds = %22
  store i1 false, ptr %4, align 1
  store i32 1, ptr %9, align 4
  br label %221

28:                                               ; preds = %22
  %29 = load ptr, ptr %6, align 8
  %30 = getelementptr inbounds nuw %struct.CachedPlan, ptr %29, i32 0, i32 6
  %31 = load i8, ptr %30, align 8, !range !4, !noundef !5
  %32 = trunc i8 %31 to i1
  br i1 %32, label %33, label %34

33:                                               ; preds = %28
  store i1 false, ptr %4, align 1
  store i32 1, ptr %9, align 4
  br label %221

34:                                               ; preds = %28
  %35 = load ptr, ptr %6, align 8
  %36 = getelementptr inbounds nuw %struct.CachedPlan, ptr %35, i32 0, i32 7
  %37 = load i32, ptr %36, align 4
  %38 = icmp ne i32 %37, 0
  br i1 %38, label %39, label %40

39:                                               ; preds = %34
  store i1 false, ptr %4, align 1
  store i32 1, ptr %9, align 4
  br label %221

40:                                               ; preds = %34
  call void @llvm.lifetime.start.p0(i64 16, ptr %10) #8
  %41 = getelementptr inbounds nuw %struct.ForEachState, ptr %10, i32 0, i32 0
  %42 = load ptr, ptr %5, align 8
  %43 = getelementptr inbounds nuw %struct.CachedPlanSource, ptr %42, i32 0, i32 12
  %44 = load ptr, ptr %43, align 8
  store ptr %44, ptr %41, align 8
  %45 = getelementptr inbounds nuw %struct.ForEachState, ptr %10, i32 0, i32 1
  store i32 0, ptr %45, align 8
  %46 = getelementptr i8, ptr %10, i64 12
  call void @llvm.memset.p0.i64(ptr align 4 %46, i8 0, i64 4, i1 false)
  br label %47

47:                                               ; preds = %101, %40
  %48 = getelementptr inbounds nuw %struct.ForEachState, ptr %10, i32 0, i32 0
  %49 = load ptr, ptr %48, align 8
  %50 = icmp ne ptr %49, null
  br i1 %50, label %51, label %68

51:                                               ; preds = %47
  %52 = getelementptr inbounds nuw %struct.ForEachState, ptr %10, i32 0, i32 1
  %53 = load i32, ptr %52, align 8
  %54 = getelementptr inbounds nuw %struct.ForEachState, ptr %10, i32 0, i32 0
  %55 = load ptr, ptr %54, align 8
  %56 = getelementptr inbounds nuw %struct.List, ptr %55, i32 0, i32 1
  %57 = load i32, ptr %56, align 4
  %58 = icmp slt i32 %53, %57
  br i1 %58, label %59, label %68

59:                                               ; preds = %51
  %60 = getelementptr inbounds nuw %struct.ForEachState, ptr %10, i32 0, i32 0
  %61 = load ptr, ptr %60, align 8
  %62 = getelementptr inbounds nuw %struct.List, ptr %61, i32 0, i32 3
  %63 = load ptr, ptr %62, align 8
  %64 = getelementptr inbounds nuw %struct.ForEachState, ptr %10, i32 0, i32 1
  %65 = load i32, ptr %64, align 8
  %66 = sext i32 %65 to i64
  %67 = getelementptr inbounds %union.ListCell, ptr %63, i64 %66
  store ptr %67, ptr %8, align 8
  br label %69

68:                                               ; preds = %51, %47
  store ptr null, ptr %8, align 8
  br label %69

69:                                               ; preds = %68, %59
  %70 = phi i32 [ 1, %59 ], [ 0, %68 ]
  %71 = icmp ne i32 %70, 0
  br i1 %71, label %73, label %72

72:                                               ; preds = %69
  store i32 2, ptr %9, align 4
  br label %105

73:                                               ; preds = %69
  call void @llvm.lifetime.start.p0(i64 8, ptr %11) #8
  %74 = load ptr, ptr %8, align 8
  %75 = load ptr, ptr %74, align 8
  store ptr %75, ptr %11, align 8
  %76 = load ptr, ptr %11, align 8
  %77 = getelementptr inbounds nuw %struct.Query, ptr %76, i32 0, i32 1
  %78 = load i32, ptr %77, align 4
  %79 = icmp eq i32 %78, 6
  br i1 %79, label %80, label %81

80:                                               ; preds = %73
  store i1 false, ptr %4, align 1
  store i32 1, ptr %9, align 4
  br label %98

81:                                               ; preds = %73
  %82 = load ptr, ptr %11, align 8
  %83 = getelementptr inbounds nuw %struct.Query, ptr %82, i32 0, i32 19
  %84 = load ptr, ptr %83, align 8
  %85 = icmp ne ptr %84, null
  br i1 %85, label %96, label %86

86:                                               ; preds = %81
  %87 = load ptr, ptr %11, align 8
  %88 = getelementptr inbounds nuw %struct.Query, ptr %87, i32 0, i32 18
  %89 = load ptr, ptr %88, align 8
  %90 = icmp ne ptr %89, null
  br i1 %90, label %96, label %91

91:                                               ; preds = %86
  %92 = load ptr, ptr %11, align 8
  %93 = getelementptr inbounds nuw %struct.Query, ptr %92, i32 0, i32 10
  %94 = load i8, ptr %93, align 1, !range !4, !noundef !5
  %95 = trunc i8 %94 to i1
  br i1 %95, label %96, label %97

96:                                               ; preds = %91, %86, %81
  store i1 false, ptr %4, align 1
  store i32 1, ptr %9, align 4
  br label %98

97:                                               ; preds = %91
  store i32 0, ptr %9, align 4
  br label %98

98:                                               ; preds = %97, %96, %80
  call void @llvm.lifetime.end.p0(i64 8, ptr %11) #8
  %99 = load i32, ptr %9, align 4
  switch i32 %99, label %105 [
    i32 0, label %100
  ]

100:                                              ; preds = %98
  br label %101

101:                                              ; preds = %100
  %102 = getelementptr inbounds nuw %struct.ForEachState, ptr %10, i32 0, i32 1
  %103 = load i32, ptr %102, align 8
  %104 = add i32 %103, 1
  store i32 %104, ptr %102, align 8
  br label %47, !llvm.loop !18

105:                                              ; preds = %98, %72
  call void @llvm.lifetime.end.p0(i64 16, ptr %10) #8
  %106 = load i32, ptr %9, align 4
  switch i32 %106, label %221 [
    i32 2, label %107
  ]

107:                                              ; preds = %105
  call void @llvm.lifetime.start.p0(i64 16, ptr %12) #8
  %108 = getelementptr inbounds nuw %struct.ForEachState, ptr %12, i32 0, i32 0
  %109 = load ptr, ptr %6, align 8
  %110 = getelementptr inbounds nuw %struct.CachedPlan, ptr %109, i32 0, i32 1
  %111 = load ptr, ptr %110, align 8
  store ptr %111, ptr %108, align 8
  %112 = getelementptr inbounds nuw %struct.ForEachState, ptr %12, i32 0, i32 1
  store i32 0, ptr %112, align 8
  %113 = getelementptr i8, ptr %12, i64 12
  call void @llvm.memset.p0.i64(ptr align 4 %113, i8 0, i64 4, i1 false)
  br label %114

114:                                              ; preds = %203, %107
  %115 = getelementptr inbounds nuw %struct.ForEachState, ptr %12, i32 0, i32 0
  %116 = load ptr, ptr %115, align 8
  %117 = icmp ne ptr %116, null
  br i1 %117, label %118, label %135

118:                                              ; preds = %114
  %119 = getelementptr inbounds nuw %struct.ForEachState, ptr %12, i32 0, i32 1
  %120 = load i32, ptr %119, align 8
  %121 = getelementptr inbounds nuw %struct.ForEachState, ptr %12, i32 0, i32 0
  %122 = load ptr, ptr %121, align 8
  %123 = getelementptr inbounds nuw %struct.List, ptr %122, i32 0, i32 1
  %124 = load i32, ptr %123, align 4
  %125 = icmp slt i32 %120, %124
  br i1 %125, label %126, label %135

126:                                              ; preds = %118
  %127 = getelementptr inbounds nuw %struct.ForEachState, ptr %12, i32 0, i32 0
  %128 = load ptr, ptr %127, align 8
  %129 = getelementptr inbounds nuw %struct.List, ptr %128, i32 0, i32 3
  %130 = load ptr, ptr %129, align 8
  %131 = getelementptr inbounds nuw %struct.ForEachState, ptr %12, i32 0, i32 1
  %132 = load i32, ptr %131, align 8
  %133 = sext i32 %132 to i64
  %134 = getelementptr inbounds %union.ListCell, ptr %130, i64 %133
  store ptr %134, ptr %8, align 8
  br label %136

135:                                              ; preds = %118, %114
  store ptr null, ptr %8, align 8
  br label %136

136:                                              ; preds = %135, %126
  %137 = phi i32 [ 1, %126 ], [ 0, %135 ]
  %138 = icmp ne i32 %137, 0
  br i1 %138, label %140, label %139

139:                                              ; preds = %136
  store i32 5, ptr %9, align 4
  br label %207

140:                                              ; preds = %136
  call void @llvm.lifetime.start.p0(i64 8, ptr %13) #8
  %141 = load ptr, ptr %8, align 8
  %142 = load ptr, ptr %141, align 8
  store ptr %142, ptr %13, align 8
  call void @llvm.lifetime.start.p0(i64 8, ptr %14) #8
  %143 = load ptr, ptr %13, align 8
  %144 = getelementptr inbounds nuw %struct.PlannedStmt, ptr %143, i32 0, i32 1
  %145 = load i32, ptr %144, align 4
  %146 = icmp eq i32 %145, 6
  br i1 %146, label %147, label %148

147:                                              ; preds = %140
  store i1 false, ptr %4, align 1
  store i32 1, ptr %9, align 4
  br label %200

148:                                              ; preds = %140
  call void @llvm.lifetime.start.p0(i64 16, ptr %15) #8
  %149 = getelementptr inbounds nuw %struct.ForEachState, ptr %15, i32 0, i32 0
  %150 = load ptr, ptr %13, align 8
  %151 = getelementptr inbounds nuw %struct.PlannedStmt, ptr %150, i32 0, i32 12
  %152 = load ptr, ptr %151, align 8
  store ptr %152, ptr %149, align 8
  %153 = getelementptr inbounds nuw %struct.ForEachState, ptr %15, i32 0, i32 1
  store i32 0, ptr %153, align 8
  %154 = getelementptr i8, ptr %15, i64 12
  call void @llvm.memset.p0.i64(ptr align 4 %154, i8 0, i64 4, i1 false)
  br label %155

155:                                              ; preds = %193, %148
  %156 = getelementptr inbounds nuw %struct.ForEachState, ptr %15, i32 0, i32 0
  %157 = load ptr, ptr %156, align 8
  %158 = icmp ne ptr %157, null
  br i1 %158, label %159, label %176

159:                                              ; preds = %155
  %160 = getelementptr inbounds nuw %struct.ForEachState, ptr %15, i32 0, i32 1
  %161 = load i32, ptr %160, align 8
  %162 = getelementptr inbounds nuw %struct.ForEachState, ptr %15, i32 0, i32 0
  %163 = load ptr, ptr %162, align 8
  %164 = getelementptr inbounds nuw %struct.List, ptr %163, i32 0, i32 1
  %165 = load i32, ptr %164, align 4
  %166 = icmp slt i32 %161, %165
  br i1 %166, label %167, label %176

167:                                              ; preds = %159
  %168 = getelementptr inbounds nuw %struct.ForEachState, ptr %15, i32 0, i32 0
  %169 = load ptr, ptr %168, align 8
  %170 = getelementptr inbounds nuw %struct.List, ptr %169, i32 0, i32 3
  %171 = load ptr, ptr %170, align 8
  %172 = getelementptr inbounds nuw %struct.ForEachState, ptr %15, i32 0, i32 1
  %173 = load i32, ptr %172, align 8
  %174 = sext i32 %173 to i64
  %175 = getelementptr inbounds %union.ListCell, ptr %171, i64 %174
  store ptr %175, ptr %14, align 8
  br label %177

176:                                              ; preds = %159, %155
  store ptr null, ptr %14, align 8
  br label %177

177:                                              ; preds = %176, %167
  %178 = phi i32 [ 1, %167 ], [ 0, %176 ]
  %179 = icmp ne i32 %178, 0
  br i1 %179, label %181, label %180

180:                                              ; preds = %177
  store i32 8, ptr %9, align 4
  br label %197

181:                                              ; preds = %177
  call void @llvm.lifetime.start.p0(i64 8, ptr %16) #8
  %182 = load ptr, ptr %14, align 8
  %183 = load ptr, ptr %182, align 8
  store ptr %183, ptr %16, align 8
  %184 = load ptr, ptr %16, align 8
  %185 = getelementptr inbounds nuw %struct.RangeTblEntry, ptr %184, i32 0, i32 3
  %186 = load i32, ptr %185, align 8
  %187 = icmp eq i32 %186, 0
  br i1 %187, label %188, label %189

188:                                              ; preds = %181
  store i1 false, ptr %4, align 1
  store i32 1, ptr %9, align 4
  br label %190

189:                                              ; preds = %181
  store i32 0, ptr %9, align 4
  br label %190

190:                                              ; preds = %189, %188
  call void @llvm.lifetime.end.p0(i64 8, ptr %16) #8
  %191 = load i32, ptr %9, align 4
  switch i32 %191, label %197 [
    i32 0, label %192
  ]

192:                                              ; preds = %190
  br label %193

193:                                              ; preds = %192
  %194 = getelementptr inbounds nuw %struct.ForEachState, ptr %15, i32 0, i32 1
  %195 = load i32, ptr %194, align 8
  %196 = add i32 %195, 1
  store i32 %196, ptr %194, align 8
  br label %155, !llvm.loop !19

197:                                              ; preds = %190, %180
  call void @llvm.lifetime.end.p0(i64 16, ptr %15) #8
  %198 = load i32, ptr %9, align 4
  switch i32 %198, label %200 [
    i32 8, label %199
  ]

199:                                              ; preds = %197
  store i32 0, ptr %9, align 4
  br label %200

200:                                              ; preds = %199, %197, %147
  call void @llvm.lifetime.end.p0(i64 8, ptr %14) #8
  call void @llvm.lifetime.end.p0(i64 8, ptr %13) #8
  %201 = load i32, ptr %9, align 4
  switch i32 %201, label %207 [
    i32 0, label %202
  ]

202:                                              ; preds = %200
  br label %203

203:                                              ; preds = %202
  %204 = getelementptr inbounds nuw %struct.ForEachState, ptr %12, i32 0, i32 1
  %205 = load i32, ptr %204, align 8
  %206 = add i32 %205, 1
  store i32 %206, ptr %204, align 8
  br label %114, !llvm.loop !20

207:                                              ; preds = %200, %139
  call void @llvm.lifetime.end.p0(i64 16, ptr %12) #8
  %208 = load i32, ptr %9, align 4
  switch i32 %208, label %221 [
    i32 5, label %209
  ]

209:                                              ; preds = %207
  %210 = load ptr, ptr %7, align 8
  %211 = icmp ne ptr %210, null
  br i1 %211, label %212, label %220

212:                                              ; preds = %209
  %213 = load ptr, ptr %7, align 8
  call void @ResourceOwnerEnlarge(ptr noundef %213)
  %214 = load ptr, ptr %6, align 8
  %215 = getelementptr inbounds nuw %struct.CachedPlan, ptr %214, i32 0, i32 9
  %216 = load i32, ptr %215, align 4
  %217 = add i32 %216, 1
  store i32 %217, ptr %215, align 4
  %218 = load ptr, ptr %7, align 8
  %219 = load ptr, ptr %6, align 8
  call void @ResourceOwnerRememberPlanCacheRef(ptr noundef %218, ptr noundef %219)
  br label %220

220:                                              ; preds = %212, %209
  store i1 true, ptr %4, align 1
  store i32 1, ptr %9, align 4
  br label %221

221:                                              ; preds = %220, %207, %105, %39, %33, %27, %21
  call void @llvm.lifetime.end.p0(i64 8, ptr %8) #8
  %222 = load i1, ptr %4, align 1
  ret i1 %222
}