; Function Attrs: nounwind uwtable
define dso_local noundef zeroext i1 @CachedPlanAllowsSimpleValidityCheck(ptr noundef readonly captures(none) %0, ptr noundef %1, ptr noundef %2) local_unnamed_addr #0 {
  %4 = getelementptr inbounds nuw i8, ptr %0, i64 144
  %5 = load i8, ptr %4, align 8, !range !4, !noundef !5
  %6 = trunc nuw i8 %5 to i1
  br i1 %6, label %.critedge76, label %7

7:                                                ; preds = %3
  %8 = getelementptr inbounds nuw i8, ptr %0, i64 133
  %9 = load i8, ptr %8, align 1, !range !4, !noundef !5
  %10 = trunc nuw i8 %9 to i1
  br i1 %10, label %.critedge76, label %11

11:                                               ; preds = %7
  %12 = getelementptr inbounds nuw i8, ptr %1, i64 24
  %13 = load i8, ptr %12, align 8, !range !4, !noundef !5
  %14 = trunc nuw i8 %13 to i1
  br i1 %14, label %.critedge76, label %15

15:                                               ; preds = %11
  %16 = getelementptr inbounds nuw i8, ptr %1, i64 28
  %17 = load i32, ptr %16, align 4
  %.not = icmp eq i32 %17, 0
  br i1 %.not, label %18, label %.critedge76

18:                                               ; preds = %15
  %19 = getelementptr inbounds nuw i8, ptr %0, i64 88
  %20 = load ptr, ptr %19, align 8
  %.not63 = icmp eq ptr %20, null
  br i1 %.not63, label %.critedge74, label %.lr.ph

.lr.ph:                                           ; preds = %18
  %21 = getelementptr inbounds nuw i8, ptr %20, i64 4
  %22 = load i32, ptr %21, align 4
  %23 = icmp sgt i32 %22, 0
  br i1 %23, label %.lr.ph95, label %.critedge74

.lr.ph95:                                         ; preds = %.lr.ph
  %24 = getelementptr inbounds nuw i8, ptr %20, i64 16
  %25 = load ptr, ptr %24, align 8
  %wide.trip.count = zext nneg i32 %22 to i64
  br label %27

26:                                               ; preds = %.critedge
  %indvars.iv.next = add nuw nsw i64 %indvars.iv, 1
  %exitcond.not = icmp eq i64 %indvars.iv.next, %wide.trip.count
  br i1 %exitcond.not, label %.critedge74, label %27

27:                                               ; preds = %.lr.ph95, %26
  %indvars.iv = phi i64 [ 0, %.lr.ph95 ], [ %indvars.iv.next, %26 ]
  %28 = getelementptr inbounds nuw %union.ListCell, ptr %25, i64 %indvars.iv
  %29 = load ptr, ptr %28, align 8
  %30 = getelementptr inbounds nuw i8, ptr %29, i64 4
  %31 = load i32, ptr %30, align 4
  %32 = icmp eq i32 %31, 6
  br i1 %32, label %.critedge76, label %33

33:                                               ; preds = %27
  %34 = getelementptr inbounds nuw i8, ptr %29, i64 64
  %35 = load ptr, ptr %34, align 8
  %.not65 = icmp eq ptr %35, null
  br i1 %.not65, label %36, label %.critedge76

36:                                               ; preds = %33
  %37 = getelementptr inbounds nuw i8, ptr %29, i64 56
  %38 = load ptr, ptr %37, align 8
  %.not66 = icmp eq ptr %38, null
  br i1 %.not66, label %.critedge, label %.critedge76

.critedge:                                        ; preds = %36
  %39 = getelementptr inbounds nuw i8, ptr %29, i64 47
  %40 = load i8, ptr %39, align 1, !range !4, !noundef !5
  %41 = trunc nuw i8 %40 to i1
  br i1 %41, label %.critedge76, label %26

.critedge74:                                      ; preds = %26, %.lr.ph, %18
  %42 = getelementptr inbounds nuw i8, ptr %1, i64 8
  %43 = load ptr, ptr %42, align 8
  %.not67 = icmp eq ptr %43, null
  br i1 %.not67, label %.critedge79, label %.lr.ph102

.lr.ph102:                                        ; preds = %.critedge74
  %44 = getelementptr inbounds nuw i8, ptr %43, i64 4
  %45 = load i32, ptr %44, align 4
  %46 = icmp sgt i32 %45, 0
  br i1 %46, label %.lr.ph108, label %.critedge79

.lr.ph108:                                        ; preds = %.lr.ph102
  %47 = getelementptr inbounds nuw i8, ptr %43, i64 16
  %48 = load ptr, ptr %47, align 8
  br label %49

49:                                               ; preds = %.lr.ph108, %.critedge78
  %.sroa.616.0101107 = phi i32 [ 0, %.lr.ph108 ], [ %70, %.critedge78 ]
  %50 = zext nneg i32 %.sroa.616.0101107 to i64
  %51 = getelementptr inbounds nuw %union.ListCell, ptr %48, i64 %50
  %52 = load ptr, ptr %51, align 8
  %53 = getelementptr inbounds nuw i8, ptr %52, i64 4
  %54 = load i32, ptr %53, align 4
  %55 = icmp eq i32 %54, 6
  br i1 %55, label %.critedge76, label %56

56:                                               ; preds = %49
  %57 = getelementptr inbounds nuw i8, ptr %52, i64 48
  %58 = load ptr, ptr %57, align 8
  %.not69 = icmp eq ptr %58, null
  br i1 %.not69, label %.critedge78, label %.lr.ph97

.lr.ph97:                                         ; preds = %56
  %59 = getelementptr inbounds nuw i8, ptr %58, i64 4
  %60 = load i32, ptr %59, align 4
  %61 = icmp sgt i32 %60, 0
  br i1 %61, label %.lr.ph100, label %.critedge78

.lr.ph100:                                        ; preds = %.lr.ph97
  %62 = getelementptr inbounds nuw i8, ptr %58, i64 16
  %63 = load ptr, ptr %62, align 8
  %wide.trip.count115 = zext nneg i32 %60 to i64
  br label %65

64:                                               ; preds = %65
  %indvars.iv.next113 = add nuw nsw i64 %indvars.iv112, 1
  %exitcond116.not = icmp eq i64 %indvars.iv.next113, %wide.trip.count115
  br i1 %exitcond116.not, label %.critedge78, label %65

65:                                               ; preds = %.lr.ph100, %64
  %indvars.iv112 = phi i64 [ 0, %.lr.ph100 ], [ %indvars.iv.next113, %64 ]
  %66 = getelementptr inbounds nuw %union.ListCell, ptr %63, i64 %indvars.iv112
  %67 = load ptr, ptr %66, align 8
  %68 = getelementptr inbounds nuw i8, ptr %67, i64 24
  %69 = load i32, ptr %68, align 8
  %.not71 = icmp eq i32 %69, 0
  br i1 %.not71, label %.critedge76, label %64

.critedge78:                                      ; preds = %64, %.lr.ph97, %56
  %70 = add nuw nsw i32 %.sroa.616.0101107, 1
  %exitcond117.not = icmp eq i32 %70, %45
  br i1 %exitcond117.not, label %.critedge79, label %49

.critedge79:                                      ; preds = %.critedge78, %.lr.ph102, %.critedge74
  %.not72 = icmp eq ptr %2, null
  br i1 %.not72, label %.critedge76, label %71

71:                                               ; preds = %.critedge79
  tail call void @ResourceOwnerEnlarge(ptr noundef nonnull %2) #9
  %72 = getelementptr inbounds nuw i8, ptr %1, i64 36
  %73 = load i32, ptr %72, align 4
  %74 = add i32 %73, 1
  store i32 %74, ptr %72, align 4
  %75 = ptrtoint ptr %1 to i64
  tail call void @ResourceOwnerRemember(ptr noundef nonnull %2, i64 noundef %75, ptr noundef nonnull @planref_resowner_desc) #9
  br label %.critedge76

.critedge76:                                      ; preds = %27, %.critedge, %36, %33, %49, %65, %.critedge79, %71, %15, %11, %7, %3
  %.0 = phi i1 [ false, %3 ], [ false, %7 ], [ false, %11 ], [ false, %15 ], [ true, %71 ], [ true, %.critedge79 ], [ false, %65 ], [ false, %49 ], [ false, %33 ], [ false, %36 ], [ false, %.critedge ], [ false, %27 ]
  ret i1 %.0
}